; Function Attrs: mustprogress uwtable
define internal noundef i64 @_ZNK5faiss12_GLOBAL__N_114IVFFlatScannerILNS_10MetricTypeE1ENS_4CMaxIflEELb1EE10scan_codesEmPKhPKlPfPlm(ptr noundef nonnull readonly align 8 captures(none) dereferenceable(56) %0, i64 noundef %1, ptr noundef %2, ptr noundef readonly captures(none) %3, ptr noundef captures(none) %4, ptr noundef captures(none) %5, i64 noundef %6) unnamed_addr #3 align 2 {
  %.not = icmp eq i64 %1, 0
  br i1 %.not, label %._crit_edge, label %.lr.ph

.lr.ph:                                           ; preds = %7
  %8 = getelementptr inbounds nuw i8, ptr %0, i64 40
  %9 = getelementptr inbounds nuw i8, ptr %0, i64 24
  %10 = getelementptr inbounds nuw i8, ptr %0, i64 48
  %11 = getelementptr inbounds nuw i8, ptr %0, i64 17
  %12 = getelementptr inbounds nuw i8, ptr %0, i64 8
  %13 = getelementptr inbounds i8, ptr %4, i64 -4
  %14 = getelementptr inbounds i8, ptr %5, i64 -8
  %15 = icmp ult i64 %6, 2
  %.phi.trans.insert.i = getelementptr inbounds nuw float, ptr %13, i64 %6
  br i1 %15, label %.lr.ph.split.us, label %.lr.ph.split

.lr.ph.split.us:                                  ; preds = %.lr.ph, %42
  %.024.us = phi i64 [ %.1.us, %42 ], [ 0, %.lr.ph ]
  %.02122.us = phi i64 [ %43, %42 ], [ 0, %.lr.ph ]
  %16 = load i64, ptr %8, align 8, !tbaa !132
  %17 = load ptr, ptr %9, align 8, !tbaa !60
  %18 = getelementptr inbounds nuw i64, ptr %3, i64 %.02122.us
  %19 = load i64, ptr %18, align 8, !tbaa !36
  %20 = load ptr, ptr %17, align 8, !tbaa !62
  %21 = load ptr, ptr %20, align 8
  %22 = tail call noundef zeroext i1 %21(ptr noundef nonnull align 8 dereferenceable(8) %17, i64 noundef %19)
  br i1 %22, label %23, label %42

23:                                               ; preds = %.lr.ph.split.us
  %24 = mul i64 %16, %.02122.us
  %25 = getelementptr inbounds nuw float, ptr %2, i64 %24
  %26 = load ptr, ptr %10, align 8, !tbaa !130
  %27 = load i64, ptr %8, align 8, !tbaa !132
  %28 = tail call noundef float @_ZN5faiss10fvec_L2sqrEPKfS1_m(ptr noundef %26, ptr noundef %25, i64 noundef %27)
  %29 = load float, ptr %4, align 4, !tbaa !112
  %30 = fcmp ogt float %29, %28
  br i1 %30, label %31, label %42

31:                                               ; preds = %23
  %32 = load i8, ptr %11, align 1, !tbaa !59, !range !42, !noundef !43
  %33 = trunc nuw i8 %32 to i1
  br i1 %33, label %36, label %34

34:                                               ; preds = %31
  %35 = load i64, ptr %18, align 8, !tbaa !36
  br label %_ZN5faiss16heap_replace_topINS_4CMaxIflEEEEvmPNT_1TEPNS3_2TIES4_S6_.exit.us

36:                                               ; preds = %31
  %37 = load i64, ptr %12, align 8, !tbaa !56
  %38 = shl i64 %37, 32
  %39 = or i64 %38, %.02122.us
  br label %_ZN5faiss16heap_replace_topINS_4CMaxIflEEEEvmPNT_1TEPNS3_2TIES4_S6_.exit.us

_ZN5faiss16heap_replace_topINS_4CMaxIflEEEEvmPNT_1TEPNS3_2TIES4_S6_.exit.us: ; preds = %36, %34
  %40 = phi i64 [ %39, %36 ], [ %35, %34 ]
  store float %28, ptr %4, align 4, !tbaa !112
  store i64 %40, ptr %5, align 8, !tbaa !36
  %41 = add i64 %.024.us, 1
  br label %42

42:                                               ; preds = %_ZN5faiss16heap_replace_topINS_4CMaxIflEEEEvmPNT_1TEPNS3_2TIES4_S6_.exit.us, %23, %.lr.ph.split.us
  %.1.us = phi i64 [ %.024.us, %.lr.ph.split.us ], [ %41, %_ZN5faiss16heap_replace_topINS_4CMaxIflEEEEvmPNT_1TEPNS3_2TIES4_S6_.exit.us ], [ %.024.us, %23 ]
  %43 = add nuw i64 %.02122.us, 1
  %exitcond26.not = icmp eq i64 %43, %1
  br i1 %exitcond26.not, label %._crit_edge, label %.lr.ph.split.us, !llvm.loop !133

._crit_edge:                                      ; preds = %106, %42, %7
  %.0.lcssa = phi i64 [ 0, %7 ], [ %.1.us, %42 ], [ %.1, %106 ]
  ret i64 %.0.lcssa

.lr.ph.split:                                     ; preds = %.lr.ph, %106
  %.024 = phi i64 [ %.1, %106 ], [ 0, %.lr.ph ]
  %.02122 = phi i64 [ %107, %106 ], [ 0, %.lr.ph ]
  %44 = load i64, ptr %8, align 8, !tbaa !132
  %45 = load ptr, ptr %9, align 8, !tbaa !60
  %46 = getelementptr inbounds nuw i64, ptr %3, i64 %.02122
  %47 = load i64, ptr %46, align 8, !tbaa !36
  %48 = load ptr, ptr %45, align 8, !tbaa !62
  %49 = load ptr, ptr %48, align 8
  %50 = tail call noundef zeroext i1 %49(ptr noundef nonnull align 8 dereferenceable(8) %45, i64 noundef %47)
  br i1 %50, label %51, label %106

51:                                               ; preds = %.lr.ph.split
  %52 = mul i64 %44, %.02122
  %53 = getelementptr inbounds nuw float, ptr %2, i64 %52
  %54 = load ptr, ptr %10, align 8, !tbaa !130
  %55 = load i64, ptr %8, align 8, !tbaa !132
  %56 = tail call noundef float @_ZN5faiss10fvec_L2sqrEPKfS1_m(ptr noundef %54, ptr noundef %53, i64 noundef %55)
  %57 = load float, ptr %4, align 4, !tbaa !112
  %58 = fcmp ogt float %57, %56
  br i1 %58, label %59, label %106

59:                                               ; preds = %51
  %60 = load i8, ptr %11, align 1, !tbaa !59, !range !42, !noundef !43
  %61 = trunc nuw i8 %60 to i1
  br i1 %61, label %62, label %66

62:                                               ; preds = %59
  %63 = load i64, ptr %12, align 8, !tbaa !56
  %64 = shl i64 %63, 32
  %65 = or i64 %64, %.02122
  br label %.lr.ph.preheader.i

66:                                               ; preds = %59
  %67 = load i64, ptr %46, align 8, !tbaa !36
  br label %.lr.ph.preheader.i

.lr.ph.preheader.i:                               ; preds = %66, %62
  %68 = phi i64 [ %65, %62 ], [ %67, %66 ]
  br label %.lr.ph.i

.lr.ph.i:                                         ; preds = %97, %.lr.ph.preheader.i
  %69 = phi i64 [ %101, %97 ], [ 3, %.lr.ph.preheader.i ]
  %70 = phi i64 [ %100, %97 ], [ 2, %.lr.ph.preheader.i ]
  %.056.i = phi i64 [ %.1.i, %97 ], [ 1, %.lr.ph.preheader.i ]
  %71 = icmp eq i64 %70, %6
  br i1 %71, label %.lr.ph._ZN5faiss4CMaxIflE4cmp2Effll.exit.thread_crit_edge.i, label %72

.lr.ph._ZN5faiss4CMaxIflE4cmp2Effll.exit.thread_crit_edge.i: ; preds = %.lr.ph.i
  %.pre.i = load float, ptr %.phi.trans.insert.i, align 4, !tbaa !112
  br label %_ZN5faiss4CMaxIflE4cmp2Effll.exit.thread.i

72:                                               ; preds = %.lr.ph.i
  %73 = getelementptr inbounds nuw float, ptr %13, i64 %70
  %74 = load float, ptr %73, align 4, !tbaa !112
  %75 = getelementptr float, ptr %4, i64 %70
  %76 = load float, ptr %75, align 4, !tbaa !112
  %77 = getelementptr i64, ptr %5, i64 %70
  %78 = load i64, ptr %77, align 8, !tbaa !36
  %79 = fcmp ogt float %74, %76
  br i1 %79, label %_ZN5faiss4CMaxIflE4cmp2Effll.exit.thread.i, label %_ZN5faiss4CMaxIflE4cmp2Effll.exit.i

_ZN5faiss4CMaxIflE4cmp2Effll.exit.i:              ; preds = %72
  %80 = getelementptr inbounds nuw i64, ptr %14, i64 %70
  %81 = load i64, ptr %80, align 8, !tbaa !36
  %82 = fcmp oeq float %74, %76
  %83 = icmp sgt i64 %81, %78
  %84 = and i1 %82, %83
  br i1 %84, label %_ZN5faiss4CMaxIflE4cmp2Effll.exit.thread.i, label %92

_ZN5faiss4CMaxIflE4cmp2Effll.exit.thread.i:       ; preds = %_ZN5faiss4CMaxIflE4cmp2Effll.exit.i, %72, %.lr.ph._ZN5faiss4CMaxIflE4cmp2Effll.exit.thread_crit_edge.i
  %85 = phi float [ %.pre.i, %.lr.ph._ZN5faiss4CMaxIflE4cmp2Effll.exit.thread_crit_edge.i ], [ %74, %72 ], [ %74, %_ZN5faiss4CMaxIflE4cmp2Effll.exit.i ]
  %86 = fcmp ogt float %56, %85
  br i1 %86, label %_ZN5faiss16heap_replace_topINS_4CMaxIflEEEEvmPNT_1TEPNS3_2TIES4_S6_.exit.loopexit, label %_ZN5faiss4CMaxIflE4cmp2Effll.exit54.i

_ZN5faiss4CMaxIflE4cmp2Effll.exit54.i:            ; preds = %_ZN5faiss4CMaxIflE4cmp2Effll.exit.thread.i
  %87 = getelementptr inbounds nuw i64, ptr %14, i64 %70
  %88 = load i64, ptr %87, align 8, !tbaa !36
  %89 = fcmp oeq float %56, %85
  %90 = icmp sgt i64 %68, %88
  %91 = and i1 %89, %90
  br i1 %91, label %_ZN5faiss16heap_replace_topINS_4CMaxIflEEEEvmPNT_1TEPNS3_2TIES4_S6_.exit.loopexit, label %97

92:                                               ; preds = %_ZN5faiss4CMaxIflE4cmp2Effll.exit.i
  %93 = fcmp ogt float %56, %76
  br i1 %93, label %_ZN5faiss16heap_replace_topINS_4CMaxIflEEEEvmPNT_1TEPNS3_2TIES4_S6_.exit.loopexit, label %_ZN5faiss4CMaxIflE4cmp2Effll.exit55.i

_ZN5faiss4CMaxIflE4cmp2Effll.exit55.i:            ; preds = %92
  %94 = fcmp oeq float %56, %76
  %95 = icmp sgt i64 %68, %78
  %96 = and i1 %94, %95
  br i1 %96, label %_ZN5faiss16heap_replace_topINS_4CMaxIflEEEEvmPNT_1TEPNS3_2TIES4_S6_.exit.loopexit, label %97

97:                                               ; preds = %_ZN5faiss4CMaxIflE4cmp2Effll.exit55.i, %_ZN5faiss4CMaxIflE4cmp2Effll.exit54.i
  %.sink63.i = phi float [ %85, %_ZN5faiss4CMaxIflE4cmp2Effll.exit54.i ], [ %76, %_ZN5faiss4CMaxIflE4cmp2Effll.exit55.i ]
  %.sink.i = phi i64 [ %88, %_ZN5faiss4CMaxIflE4cmp2Effll.exit54.i ], [ %78, %_ZN5faiss4CMaxIflE4cmp2Effll.exit55.i ]
  %.1.i = phi i64 [ %70, %_ZN5faiss4CMaxIflE4cmp2Effll.exit54.i ], [ %69, %_ZN5faiss4CMaxIflE4cmp2Effll.exit55.i ]
  %98 = getelementptr inbounds nuw float, ptr %13, i64 %.056.i
  store float %.sink63.i, ptr %98, align 4, !tbaa !112
  %99 = getelementptr inbounds nuw i64, ptr %14, i64 %.056.i
  store i64 %.sink.i, ptr %99, align 8, !tbaa !36
  %100 = shl i64 %.1.i, 1
  %101 = or disjoint i64 %100, 1
  %102 = icmp ugt i64 %100, %6
  br i1 %102, label %_ZN5faiss16heap_replace_topINS_4CMaxIflEEEEvmPNT_1TEPNS3_2TIES4_S6_.exit.loopexit, label %.lr.ph.i, !llvm.loop !134

_ZN5faiss16heap_replace_topINS_4CMaxIflEEEEvmPNT_1TEPNS3_2TIES4_S6_.exit.loopexit: ; preds = %97, %_ZN5faiss4CMaxIflE4cmp2Effll.exit55.i, %92, %_ZN5faiss4CMaxIflE4cmp2Effll.exit54.i, %_ZN5faiss4CMaxIflE4cmp2Effll.exit.thread.i
  %.0.lcssa.i.ph = phi i64 [ %.1.i, %97 ], [ %.056.i, %_ZN5faiss4CMaxIflE4cmp2Effll.exit54.i ], [ %.056.i, %_ZN5faiss4CMaxIflE4cmp2Effll.exit55.i ], [ %.056.i, %_ZN5faiss4CMaxIflE4cmp2Effll.exit.thread.i ], [ %.056.i, %92 ]
  %103 = getelementptr inbounds nuw float, ptr %13, i64 %.0.lcssa.i.ph
  store float %56, ptr %103, align 4, !tbaa !112
  %104 = getelementptr inbounds nuw i64, ptr %14, i64 %.0.lcssa.i.ph
  store i64 %68, ptr %104, align 8, !tbaa !36
  %105 = add i64 %.024, 1
  br label %106

106:                                              ; preds = %51, %_ZN5faiss16heap_replace_topINS_4CMaxIflEEEEvmPNT_1TEPNS3_2TIES4_S6_.exit.loopexit, %.lr.ph.split
  %.1 = phi i64 [ %.024, %.lr.ph.split ], [ %105, %_ZN5faiss16heap_replace_topINS_4CMaxIflEEEEvmPNT_1TEPNS3_2TIES4_S6_.exit.loopexit ], [ %.024, %51 ]
  %107 = add nuw i64 %.02122, 1
  %exitcond.not = icmp eq i64 %107, %1
  br i1 %exitcond.not, label %._crit_edge, label %.lr.ph.split, !llvm.loop !133
}